---
triple:          'arm64-apple-darwin'
binary-path:     '/Users/kartikidindorkar/Documents/projects/oopd/CrackingTheCodingInterviewSolutions/2_1_RemoveDuplicates'
relocations:
  - { offsetInCU: 0x2F4F, offset: 0x2F4F, size: 0x8, addend: 0x0, symName: __ZNSt3__124__put_character_sequenceB8ue170006IcNS_11char_traitsIcEEEERNS_13basic_ostreamIT_T0_EES7_PKS4_m, symObjAddr: 0x740, symBinAddr: 0x100001208, symSize: 0x1EC }
  - { offsetInCU: 0x6522, offset: 0x6522, size: 0x8, addend: 0x0, symName: __ZNSt3__1lsB8ue170006INS_11char_traitsIcEEEERNS_13basic_ostreamIcT_EES6_PKc, symObjAddr: 0x80, symBinAddr: 0x100000B48, symSize: 0x48 }
  - { offsetInCU: 0x6568, offset: 0x6568, size: 0x8, addend: 0x0, symName: __ZNSt3__14endlB8ue170006IcNS_11char_traitsIcEEEERNS_13basic_ostreamIT_T0_EES7_, symObjAddr: 0xF4, symBinAddr: 0x100000BBC, symSize: 0x58 }
  - { offsetInCU: 0x72E3, offset: 0x72E3, size: 0x8, addend: 0x0, symName: __ZNSt3__1neB8ue170006ERKNS_21__tree_const_iteratorIiPNS_11__tree_nodeIiPvEElEES7_, symObjAddr: 0x2B4, symBinAddr: 0x100000D7C, symSize: 0x34 }
  - { offsetInCU: 0x7320, offset: 0x7320, size: 0x8, addend: 0x0, symName: __ZNSt3__116__pad_and_outputB8ue170006IcNS_11char_traitsIcEEEENS_19ostreambuf_iteratorIT_T0_EES6_PKS4_S8_S8_RNS_8ios_baseES4_, symObjAddr: 0x97C, symBinAddr: 0x100001444, symSize: 0x240 }
  - { offsetInCU: 0x73EF, offset: 0x73EF, size: 0x8, addend: 0x0, symName: __ZNSt3__112__to_addressB8ue170006IcEEPT_S2_, symObjAddr: 0xEF0, symBinAddr: 0x1000019B8, symSize: 0x14 }
  - { offsetInCU: 0x7457, offset: 0x7457, size: 0x8, addend: 0x0, symName: __ZNSt3__19use_facetB8ue170006INS_5ctypeIcEEEERKT_RKNS_6localeE, symObjAddr: 0x11A8, symBinAddr: 0x100001C70, symSize: 0x2C }
  - { offsetInCU: 0x7924, offset: 0x7924, size: 0x8, addend: 0x0, symName: __ZNSt3__118__constexpr_strlenB8ue170006EPKc, symObjAddr: 0x1240, symBinAddr: 0x100001D08, symSize: 0x24 }
  - { offsetInCU: 0x7983, offset: 0x7983, size: 0x8, addend: 0x0, symName: __ZNSt3__119__libcpp_deallocateB8ue170006EPvmm, symObjAddr: 0x1828, symBinAddr: 0x1000022F0, symSize: 0x60 }
  - { offsetInCU: 0x79E8, offset: 0x79E8, size: 0x8, addend: 0x0, symName: __ZNSt3__124__is_overaligned_for_newB8ue170006Em, symObjAddr: 0x1888, symBinAddr: 0x100002350, symSize: 0x20 }
  - { offsetInCU: 0x7A16, offset: 0x7A16, size: 0x8, addend: 0x0, symName: __ZNSt3__127__do_deallocate_handle_sizeB8ue170006IJSt11align_val_tEEEvPvmDpT_, symObjAddr: 0x18A8, symBinAddr: 0x100002370, symSize: 0x30 }
  - { offsetInCU: 0x7A69, offset: 0x7A69, size: 0x8, addend: 0x0, symName: __ZNSt3__127__do_deallocate_handle_sizeB8ue170006IJEEEvPvmDpT_, symObjAddr: 0x18D8, symBinAddr: 0x1000023A0, symSize: 0x28 }
  - { offsetInCU: 0x7AA7, offset: 0x7AA7, size: 0x8, addend: 0x0, symName: __ZNSt3__124__libcpp_operator_deleteB8ue170006IJPvSt11align_val_tEEEvDpT_, symObjAddr: 0x1900, symBinAddr: 0x1000023C8, symSize: 0x2C }
  - { offsetInCU: 0x7AF0, offset: 0x7AF0, size: 0x8, addend: 0x0, symName: __ZNSt3__124__libcpp_operator_deleteB8ue170006IJPvEEEvDpT_, symObjAddr: 0x192C, symBinAddr: 0x1000023F4, symSize: 0x24 }
  - { offsetInCU: 0x7B25, offset: 0x7B25, size: 0x8, addend: 0x0, symName: __ZNSt3__1neB8ue170006ERKNS_15__tree_iteratorIiPNS_11__tree_nodeIiPvEElEES7_, symObjAddr: 0x1B84, symBinAddr: 0x10000264C, symSize: 0x34 }
  - { offsetInCU: 0x7B62, offset: 0x7B62, size: 0x8, addend: 0x0, symName: __ZNSt3__1eqB8ue170006ERKNS_15__tree_iteratorIiPNS_11__tree_nodeIiPvEElEES7_, symObjAddr: 0x1CC4, symBinAddr: 0x10000278C, symSize: 0x30 }
  - { offsetInCU: 0x7B9F, offset: 0x7B9F, size: 0x8, addend: 0x0, symName: __ZNSt3__1eqB8ue170006ERKNS_21__tree_const_iteratorIiPNS_11__tree_nodeIiPvEElEES7_, symObjAddr: 0x1D64, symBinAddr: 0x10000282C, symSize: 0x30 }
  - { offsetInCU: 0x7BFA, offset: 0x7BFA, size: 0x8, addend: 0x0, symName: __ZNSt3__117__libcpp_allocateB8ue170006Emm, symObjAddr: 0x2580, symBinAddr: 0x100003048, symSize: 0x60 }
  - { offsetInCU: 0x7C54, offset: 0x7C54, size: 0x8, addend: 0x0, symName: __ZNSt3__121__libcpp_operator_newB8ue170006IJmSt11align_val_tEEEPvDpT_, symObjAddr: 0x25F4, symBinAddr: 0x1000030BC, symSize: 0x2C }
  - { offsetInCU: 0x7CA1, offset: 0x7CA1, size: 0x8, addend: 0x0, symName: __ZNSt3__121__libcpp_operator_newB8ue170006IJmEEEPvDpT_, symObjAddr: 0x2620, symBinAddr: 0x1000030E8, symSize: 0x24 }
  - { offsetInCU: 0x7CDA, offset: 0x7CDA, size: 0x8, addend: 0x0, symName: __ZNSt3__127__tree_balance_after_insertB8ue170006IPNS_16__tree_node_baseIPvEEEEvT_S5_, symObjAddr: 0x282C, symBinAddr: 0x1000032F4, symSize: 0x32C }
  - { offsetInCU: 0x7D56, offset: 0x7D56, size: 0x8, addend: 0x0, symName: __ZNSt3__120__tree_is_left_childB8ue170006IPNS_16__tree_node_baseIPvEEEEbT_, symObjAddr: 0x2B98, symBinAddr: 0x100003660, symSize: 0x2C }
  - { offsetInCU: 0x7D8B, offset: 0x7D8B, size: 0x8, addend: 0x0, symName: __ZNSt3__118__tree_left_rotateB8ue170006IPNS_16__tree_node_baseIPvEEEEvT_, symObjAddr: 0x2BC4, symBinAddr: 0x10000368C, symSize: 0xD8 }
  - { offsetInCU: 0x7DCD, offset: 0x7DCD, size: 0x8, addend: 0x0, symName: __ZNSt3__119__tree_right_rotateB8ue170006IPNS_16__tree_node_baseIPvEEEEvT_, symObjAddr: 0x2C9C, symBinAddr: 0x100003764, symSize: 0xCC }
  - { offsetInCU: 0x7F40, offset: 0x7F40, size: 0x8, addend: 0x0, symName: __ZSt28__throw_bad_array_new_lengthB8ue170006v, symObjAddr: 0x254C, symBinAddr: 0x100003014, symSize: 0x34 }
  - { offsetInCU: 0xA8C4, offset: 0xA8C4, size: 0x8, addend: 0x0, symName: __Z15printLinkedListP4Node, symObjAddr: 0x0, symBinAddr: 0x100000AC8, symSize: 0x80 }
  - { offsetInCU: 0xA8FC, offset: 0xA8FC, size: 0x8, addend: 0x0, symName: __ZNSt3__113basic_ostreamIcNS_11char_traitsIcEEElsB8ue170006EPFRS3_S4_E, symObjAddr: 0xC8, symBinAddr: 0x100000B90, symSize: 0x2C }
  - { offsetInCU: 0xA930, offset: 0xA930, size: 0x8, addend: 0x0, symName: __Z16removeDuplicatesP4Node, symObjAddr: 0x14C, symBinAddr: 0x100000C14, symSize: 0x13C }
  - { offsetInCU: 0xAAA8, offset: 0xAAA8, size: 0x8, addend: 0x0, symName: __ZNSt3__13setIiNS_4lessIiEENS_9allocatorIiEEEC1B8ue170006Ev, symObjAddr: 0x288, symBinAddr: 0x100000D50, symSize: 0x2C }
  - { offsetInCU: 0xAAD2, offset: 0xAAD2, size: 0x8, addend: 0x0, symName: __ZNSt3__13setIiNS_4lessIiEENS_9allocatorIiEEE4findB8ue170006ERKi, symObjAddr: 0x2E8, symBinAddr: 0x100000DB0, symSize: 0x40 }
  - { offsetInCU: 0xAB07, offset: 0xAB07, size: 0x8, addend: 0x0, symName: __ZNSt3__13setIiNS_4lessIiEENS_9allocatorIiEEE3endB8ue170006Ev, symObjAddr: 0x328, symBinAddr: 0x100000DF0, symSize: 0x38 }
  - { offsetInCU: 0xAB2D, offset: 0xAB2D, size: 0x8, addend: 0x0, symName: __ZNSt3__13setIiNS_4lessIiEENS_9allocatorIiEEE6insertB8ue170006ERKi, symObjAddr: 0x360, symBinAddr: 0x100000E28, symSize: 0x4C }
  - { offsetInCU: 0xAB62, offset: 0xAB62, size: 0x8, addend: 0x0, symName: __ZNSt3__13setIiNS_4lessIiEENS_9allocatorIiEEED1B8ue170006Ev, symObjAddr: 0x3AC, symBinAddr: 0x100000E74, symSize: 0x2C }
  - { offsetInCU: 0xAB8C, offset: 0xAB8C, size: 0x8, addend: 0x0, symName: __Z20removeDuplicatedNoDSP4Node, symObjAddr: 0x3D8, symBinAddr: 0x100000EA0, symSize: 0xDC }
  - { offsetInCU: 0xABE2, offset: 0xABE2, size: 0x8, addend: 0x0, symName: _main, symObjAddr: 0x4B4, symBinAddr: 0x100000F7C, symSize: 0x238 }
  - { offsetInCU: 0xAC4D, offset: 0xAC4D, size: 0x8, addend: 0x0, symName: __ZN4NodeC1Ei, symObjAddr: 0x6EC, symBinAddr: 0x1000011B4, symSize: 0x34 }
  - { offsetInCU: 0xAC85, offset: 0xAC85, size: 0x8, addend: 0x0, symName: __ZN4NodeC2Ei, symObjAddr: 0x720, symBinAddr: 0x1000011E8, symSize: 0x20 }
  - { offsetInCU: 0xACBD, offset: 0xACBD, size: 0x8, addend: 0x0, symName: __ZNSt3__111char_traitsIcE6lengthB8ue170006EPKc, symObjAddr: 0x92C, symBinAddr: 0x1000013F4, symSize: 0x34 }
  - { offsetInCU: 0xACFE, offset: 0xACFE, size: 0x8, addend: 0x0, symName: __ZNKSt3__113basic_ostreamIcNS_11char_traitsIcEEE6sentrycvbB8ue170006Ev, symObjAddr: 0x960, symBinAddr: 0x100001428, symSize: 0x1C }
  - { offsetInCU: 0xAD24, offset: 0xAD24, size: 0x8, addend: 0x0, symName: __ZNSt3__119ostreambuf_iteratorIcNS_11char_traitsIcEEEC1B8ue170006ERNS_13basic_ostreamIcS2_EE, symObjAddr: 0xBBC, symBinAddr: 0x100001684, symSize: 0x34 }
  - { offsetInCU: 0xAD5C, offset: 0xAD5C, size: 0x8, addend: 0x0, symName: __ZNKSt3__18ios_base5flagsB8ue170006Ev, symObjAddr: 0xBF0, symBinAddr: 0x1000016B8, symSize: 0x18 }
  - { offsetInCU: 0xAD84, offset: 0xAD84, size: 0x8, addend: 0x0, symName: __ZNKSt3__19basic_iosIcNS_11char_traitsIcEEE4fillB8ue170006Ev, symObjAddr: 0xC08, symBinAddr: 0x1000016D0, symSize: 0x64 }
  - { offsetInCU: 0xADAC, offset: 0xADAC, size: 0x8, addend: 0x0, symName: __ZNKSt3__119ostreambuf_iteratorIcNS_11char_traitsIcEEE6failedB8ue170006Ev, symObjAddr: 0xC6C, symBinAddr: 0x100001734, symSize: 0x24 }
  - { offsetInCU: 0xADD2, offset: 0xADD2, size: 0x8, addend: 0x0, symName: __ZNSt3__19basic_iosIcNS_11char_traitsIcEEE8setstateB8ue170006Ej, symObjAddr: 0xC90, symBinAddr: 0x100001758, symSize: 0x2C }
  - { offsetInCU: 0xAE07, offset: 0xAE07, size: 0x8, addend: 0x0, symName: __ZNKSt3__18ios_base5widthB8ue170006Ev, symObjAddr: 0xCC8, symBinAddr: 0x100001790, symSize: 0x18 }
  - { offsetInCU: 0xAE2F, offset: 0xAE2F, size: 0x8, addend: 0x0, symName: __ZNSt3__115basic_streambufIcNS_11char_traitsIcEEE5sputnB8ue170006EPKcl, symObjAddr: 0xCE0, symBinAddr: 0x1000017A8, symSize: 0x3C }
  - { offsetInCU: 0xAE71, offset: 0xAE71, size: 0x8, addend: 0x0, symName: __ZNSt3__112basic_stringIcNS_11char_traitsIcEENS_9allocatorIcEEEC1B8ue170006Emc, symObjAddr: 0xD1C, symBinAddr: 0x1000017E4, symSize: 0x3C }
  - { offsetInCU: 0xAEB9, offset: 0xAEB9, size: 0x8, addend: 0x0, symName: __ZNSt3__112basic_stringIcNS_11char_traitsIcEENS_9allocatorIcEEE4dataB8ue170006Ev, symObjAddr: 0xD58, symBinAddr: 0x100001820, symSize: 0x28 }
  - { offsetInCU: 0xAEDF, offset: 0xAEDF, size: 0x8, addend: 0x0, symName: __ZNSt3__18ios_base5widthB8ue170006El, symObjAddr: 0xD80, symBinAddr: 0x100001848, symSize: 0x2C }
  - { offsetInCU: 0xAF25, offset: 0xAF25, size: 0x8, addend: 0x0, symName: __ZNSt3__112basic_stringIcNS_11char_traitsIcEENS_9allocatorIcEEEC2B8ue170006Emc, symObjAddr: 0xDAC, symBinAddr: 0x100001874, symSize: 0x4C }
  - { offsetInCU: 0xAF72, offset: 0xAF72, size: 0x8, addend: 0x0, symName: __ZNSt3__117__compressed_pairINS_12basic_stringIcNS_11char_traitsIcEENS_9allocatorIcEEE5__repES5_EC1B8ue170006INS_18__default_init_tagESA_EEOT_OT0_, symObjAddr: 0xDF8, symBinAddr: 0x1000018C0, symSize: 0x3C }
  - { offsetInCU: 0xAFCA, offset: 0xAFCA, size: 0x8, addend: 0x0, symName: __ZNSt3__117__compressed_pairINS_12basic_stringIcNS_11char_traitsIcEENS_9allocatorIcEEE5__repES5_EC2B8ue170006INS_18__default_init_tagESA_EEOT_OT0_, symObjAddr: 0xE34, symBinAddr: 0x1000018FC, symSize: 0x3C }
  - { offsetInCU: 0xB022, offset: 0xB022, size: 0x8, addend: 0x0, symName: __ZNSt3__122__compressed_pair_elemINS_12basic_stringIcNS_11char_traitsIcEENS_9allocatorIcEEE5__repELi0ELb0EEC2B8ue170006ENS_18__default_init_tagE, symObjAddr: 0xE70, symBinAddr: 0x100001938, symSize: 0x14 }
  - { offsetInCU: 0xB057, offset: 0xB057, size: 0x8, addend: 0x0, symName: __ZNSt3__122__compressed_pair_elemINS_9allocatorIcEELi1ELb1EEC2B8ue170006ENS_18__default_init_tagE, symObjAddr: 0xE84, symBinAddr: 0x10000194C, symSize: 0x2C }
  - { offsetInCU: 0xB08C, offset: 0xB08C, size: 0x8, addend: 0x0, symName: __ZNSt3__19allocatorIcEC2B8ue170006Ev, symObjAddr: 0xEB0, symBinAddr: 0x100001978, symSize: 0x2C }
  - { offsetInCU: 0xB0B6, offset: 0xB0B6, size: 0x8, addend: 0x0, symName: __ZNSt3__116__non_trivial_ifILb1ENS_9allocatorIcEEEC2B8ue170006Ev, symObjAddr: 0xEDC, symBinAddr: 0x1000019A4, symSize: 0x14 }
  - { offsetInCU: 0xB0E0, offset: 0xB0E0, size: 0x8, addend: 0x0, symName: __ZNSt3__112basic_stringIcNS_11char_traitsIcEENS_9allocatorIcEEE13__get_pointerB8ue170006Ev, symObjAddr: 0xF04, symBinAddr: 0x1000019CC, symSize: 0x54 }
  - { offsetInCU: 0xB106, offset: 0xB106, size: 0x8, addend: 0x0, symName: __ZNKSt3__112basic_stringIcNS_11char_traitsIcEENS_9allocatorIcEEE9__is_longB8ue170006Ev, symObjAddr: 0xF58, symBinAddr: 0x100001A20, symSize: 0x38 }
  - { offsetInCU: 0xB12C, offset: 0xB12C, size: 0x8, addend: 0x0, symName: __ZNSt3__112basic_stringIcNS_11char_traitsIcEENS_9allocatorIcEEE18__get_long_pointerB8ue170006Ev, symObjAddr: 0xF90, symBinAddr: 0x100001A58, symSize: 0x28 }
  - { offsetInCU: 0xB152, offset: 0xB152, size: 0x8, addend: 0x0, symName: __ZNSt3__112basic_stringIcNS_11char_traitsIcEENS_9allocatorIcEEE19__get_short_pointerB8ue170006Ev, symObjAddr: 0xFB8, symBinAddr: 0x100001A80, symSize: 0x28 }
  - { offsetInCU: 0xB178, offset: 0xB178, size: 0x8, addend: 0x0, symName: __ZNKSt3__117__compressed_pairINS_12basic_stringIcNS_11char_traitsIcEENS_9allocatorIcEEE5__repES5_E5firstB8ue170006Ev, symObjAddr: 0xFE0, symBinAddr: 0x100001AA8, symSize: 0x24 }
  - { offsetInCU: 0xB19E, offset: 0xB19E, size: 0x8, addend: 0x0, symName: __ZNKSt3__122__compressed_pair_elemINS_12basic_stringIcNS_11char_traitsIcEENS_9allocatorIcEEE5__repELi0ELb0EE5__getB8ue170006Ev, symObjAddr: 0x1004, symBinAddr: 0x100001ACC, symSize: 0x14 }
  - { offsetInCU: 0xB1C4, offset: 0xB1C4, size: 0x8, addend: 0x0, symName: __ZNSt3__117__compressed_pairINS_12basic_stringIcNS_11char_traitsIcEENS_9allocatorIcEEE5__repES5_E5firstB8ue170006Ev, symObjAddr: 0x1018, symBinAddr: 0x100001AE0, symSize: 0x24 }
  - { offsetInCU: 0xB1EA, offset: 0xB1EA, size: 0x8, addend: 0x0, symName: __ZNSt3__122__compressed_pair_elemINS_12basic_stringIcNS_11char_traitsIcEENS_9allocatorIcEEE5__repELi0ELb0EE5__getB8ue170006Ev, symObjAddr: 0x103C, symBinAddr: 0x100001B04, symSize: 0x14 }
  - { offsetInCU: 0xB210, offset: 0xB210, size: 0x8, addend: 0x0, symName: __ZNSt3__114pointer_traitsIPcE10pointer_toB8ue170006ERc, symObjAddr: 0x1050, symBinAddr: 0x100001B18, symSize: 0x14 }
  - { offsetInCU: 0xB233, offset: 0xB233, size: 0x8, addend: 0x0, symName: __ZNSt3__119ostreambuf_iteratorIcNS_11char_traitsIcEEEC2B8ue170006ERNS_13basic_ostreamIcS2_EE, symObjAddr: 0x1064, symBinAddr: 0x100001B2C, symSize: 0x54 }
  - { offsetInCU: 0xB26B, offset: 0xB26B, size: 0x8, addend: 0x0, symName: __ZNKSt3__19basic_iosIcNS_11char_traitsIcEEE5rdbufB8ue170006Ev, symObjAddr: 0x10B8, symBinAddr: 0x100001B80, symSize: 0x24 }
  - { offsetInCU: 0xB293, offset: 0xB293, size: 0x8, addend: 0x0, symName: __ZNKSt3__18ios_base5rdbufB8ue170006Ev, symObjAddr: 0x10DC, symBinAddr: 0x100001BA4, symSize: 0x18 }
  - { offsetInCU: 0xB2B9, offset: 0xB2B9, size: 0x8, addend: 0x0, symName: __ZNSt3__111char_traitsIcE11eq_int_typeB8ue170006Eii, symObjAddr: 0x10F4, symBinAddr: 0x100001BBC, symSize: 0x28 }
  - { offsetInCU: 0xB2EC, offset: 0xB2EC, size: 0x8, addend: 0x0, symName: __ZNSt3__111char_traitsIcE3eofB8ue170006Ev, symObjAddr: 0x111C, symBinAddr: 0x100001BE4, symSize: 0x8 }
  - { offsetInCU: 0xB300, offset: 0xB300, size: 0x8, addend: 0x0, symName: __ZNKSt3__19basic_iosIcNS_11char_traitsIcEEE5widenB8ue170006Ec, symObjAddr: 0x1124, symBinAddr: 0x100001BEC, symSize: 0x84 }
  - { offsetInCU: 0xB36E, offset: 0xB36E, size: 0x8, addend: 0x0, symName: __ZNKSt3__15ctypeIcE5widenB8ue170006Ec, symObjAddr: 0x11D4, symBinAddr: 0x100001C9C, symSize: 0x38 }
  - { offsetInCU: 0xB3A3, offset: 0xB3A3, size: 0x8, addend: 0x0, symName: __ZNSt3__18ios_base8setstateB8ue170006Ej, symObjAddr: 0x120C, symBinAddr: 0x100001CD4, symSize: 0x34 }
  - { offsetInCU: 0xB3DA, offset: 0xB3DA, size: 0x8, addend: 0x0, symName: __ZNSt3__13setIiNS_4lessIiEENS_9allocatorIiEEEC2B8ue170006Ev, symObjAddr: 0x1264, symBinAddr: 0x100001D2C, symSize: 0x30 }
  - { offsetInCU: 0xB404, offset: 0xB404, size: 0x8, addend: 0x0, symName: __ZNSt3__16__treeIiNS_4lessIiEENS_9allocatorIiEEEC1ERKS2_, symObjAddr: 0x1294, symBinAddr: 0x100001D5C, symSize: 0x34 }
  - { offsetInCU: 0xB43F, offset: 0xB43F, size: 0x8, addend: 0x0, symName: __ZNSt3__16__treeIiNS_4lessIiEENS_9allocatorIiEEEC2ERKS2_, symObjAddr: 0x12C8, symBinAddr: 0x100001D90, symSize: 0x7C }
  - { offsetInCU: 0xB47A, offset: 0xB47A, size: 0x8, addend: 0x0, symName: __ZNSt3__117__compressed_pairINS_15__tree_end_nodeIPNS_16__tree_node_baseIPvEEEENS_9allocatorINS_11__tree_nodeIiS3_EEEEEC1B8ue170006ILb1EvEEv, symObjAddr: 0x1344, symBinAddr: 0x100001E0C, symSize: 0x2C }
  - { offsetInCU: 0xB4B4, offset: 0xB4B4, size: 0x8, addend: 0x0, symName: __ZNSt3__117__compressed_pairImNS_4lessIiEEEC1B8ue170006IiRKS2_EEOT_OT0_, symObjAddr: 0x1370, symBinAddr: 0x100001E38, symSize: 0x3C }
  - { offsetInCU: 0xB50C, offset: 0xB50C, size: 0x8, addend: 0x0, symName: __ZNSt3__16__treeIiNS_4lessIiEENS_9allocatorIiEEE10__end_nodeB8ue170006Ev, symObjAddr: 0x13AC, symBinAddr: 0x100001E74, symSize: 0x2C }
  - { offsetInCU: 0xB532, offset: 0xB532, size: 0x8, addend: 0x0, symName: __ZNSt3__16__treeIiNS_4lessIiEENS_9allocatorIiEEE12__begin_nodeB8ue170006Ev, symObjAddr: 0x13D8, symBinAddr: 0x100001EA0, symSize: 0x14 }
  - { offsetInCU: 0xB558, offset: 0xB558, size: 0x8, addend: 0x0, symName: __ZNSt3__117__compressed_pairINS_15__tree_end_nodeIPNS_16__tree_node_baseIPvEEEENS_9allocatorINS_11__tree_nodeIiS3_EEEEEC2B8ue170006ILb1EvEEv, symObjAddr: 0x13EC, symBinAddr: 0x100001EB4, symSize: 0x34 }
  - { offsetInCU: 0xB58D, offset: 0xB58D, size: 0x8, addend: 0x0, symName: __ZNSt3__122__compressed_pair_elemINS_15__tree_end_nodeIPNS_16__tree_node_baseIPvEEEELi0ELb0EEC2B8ue170006ENS_16__value_init_tagE, symObjAddr: 0x1420, symBinAddr: 0x100001EE8, symSize: 0x2C }
  - { offsetInCU: 0xB5C2, offset: 0xB5C2, size: 0x8, addend: 0x0, symName: __ZNSt3__122__compressed_pair_elemINS_9allocatorINS_11__tree_nodeIiPvEEEELi1ELb1EEC2B8ue170006ENS_16__value_init_tagE, symObjAddr: 0x144C, symBinAddr: 0x100001F14, symSize: 0x2C }
  - { offsetInCU: 0xB5F7, offset: 0xB5F7, size: 0x8, addend: 0x0, symName: __ZNSt3__115__tree_end_nodeIPNS_16__tree_node_baseIPvEEEC1B8ue170006Ev, symObjAddr: 0x1478, symBinAddr: 0x100001F40, symSize: 0x2C }
  - { offsetInCU: 0xB621, offset: 0xB621, size: 0x8, addend: 0x0, symName: __ZNSt3__115__tree_end_nodeIPNS_16__tree_node_baseIPvEEEC2B8ue170006Ev, symObjAddr: 0x14A4, symBinAddr: 0x100001F6C, symSize: 0x18 }
  - { offsetInCU: 0xB64B, offset: 0xB64B, size: 0x8, addend: 0x0, symName: __ZNSt3__19allocatorINS_11__tree_nodeIiPvEEEC2B8ue170006Ev, symObjAddr: 0x14BC, symBinAddr: 0x100001F84, symSize: 0x2C }
  - { offsetInCU: 0xB675, offset: 0xB675, size: 0x8, addend: 0x0, symName: __ZNSt3__116__non_trivial_ifILb1ENS_9allocatorINS_11__tree_nodeIiPvEEEEEC2B8ue170006Ev, symObjAddr: 0x14E8, symBinAddr: 0x100001FB0, symSize: 0x14 }
  - { offsetInCU: 0xB69F, offset: 0xB69F, size: 0x8, addend: 0x0, symName: __ZNSt3__117__compressed_pairImNS_4lessIiEEEC2B8ue170006IiRKS2_EEOT_OT0_, symObjAddr: 0x14FC, symBinAddr: 0x100001FC4, symSize: 0x44 }
  - { offsetInCU: 0xB6F7, offset: 0xB6F7, size: 0x8, addend: 0x0, symName: __ZNSt3__122__compressed_pair_elemImLi0ELb0EEC2B8ue170006IivEEOT_, symObjAddr: 0x1540, symBinAddr: 0x100002008, symSize: 0x24 }
  - { offsetInCU: 0xB739, offset: 0xB739, size: 0x8, addend: 0x0, symName: __ZNSt3__122__compressed_pair_elemINS_4lessIiEELi1ELb1EEC2B8ue170006IRKS2_vEEOT_, symObjAddr: 0x1564, symBinAddr: 0x10000202C, symSize: 0x18 }
  - { offsetInCU: 0xB77B, offset: 0xB77B, size: 0x8, addend: 0x0, symName: __ZNSt3__114pointer_traitsIPNS_15__tree_end_nodeIPNS_16__tree_node_baseIPvEEEEE10pointer_toB8ue170006ERS6_, symObjAddr: 0x157C, symBinAddr: 0x100002044, symSize: 0x14 }
  - { offsetInCU: 0xB79E, offset: 0xB79E, size: 0x8, addend: 0x0, symName: __ZNSt3__117__compressed_pairINS_15__tree_end_nodeIPNS_16__tree_node_baseIPvEEEENS_9allocatorINS_11__tree_nodeIiS3_EEEEE5firstB8ue170006Ev, symObjAddr: 0x1590, symBinAddr: 0x100002058, symSize: 0x24 }
  - { offsetInCU: 0xB7C4, offset: 0xB7C4, size: 0x8, addend: 0x0, symName: __ZNSt3__122__compressed_pair_elemINS_15__tree_end_nodeIPNS_16__tree_node_baseIPvEEEELi0ELb0EE5__getB8ue170006Ev, symObjAddr: 0x15B4, symBinAddr: 0x10000207C, symSize: 0x14 }
  - { offsetInCU: 0xB7EA, offset: 0xB7EA, size: 0x8, addend: 0x0, symName: __ZNSt3__13setIiNS_4lessIiEENS_9allocatorIiEEED2B8ue170006Ev, symObjAddr: 0x15C8, symBinAddr: 0x100002090, symSize: 0x2C }
  - { offsetInCU: 0xB814, offset: 0xB814, size: 0x8, addend: 0x0, symName: __ZNSt3__16__treeIiNS_4lessIiEENS_9allocatorIiEEED1Ev, symObjAddr: 0x15F4, symBinAddr: 0x1000020BC, symSize: 0x2C }
  - { offsetInCU: 0xB840, offset: 0xB840, size: 0x8, addend: 0x0, symName: __ZNSt3__16__treeIiNS_4lessIiEENS_9allocatorIiEEED2Ev, symObjAddr: 0x1620, symBinAddr: 0x1000020E8, symSize: 0x38 }
  - { offsetInCU: 0xB86C, offset: 0xB86C, size: 0x8, addend: 0x0, symName: __ZNSt3__16__treeIiNS_4lessIiEENS_9allocatorIiEEE7destroyEPNS_11__tree_nodeIiPvEE, symObjAddr: 0x1658, symBinAddr: 0x100002120, symSize: 0xAC }
  - { offsetInCU: 0xB8B8, offset: 0xB8B8, size: 0x8, addend: 0x0, symName: __ZNKSt3__16__treeIiNS_4lessIiEENS_9allocatorIiEEE6__rootB8ue170006Ev, symObjAddr: 0x1704, symBinAddr: 0x1000021CC, symSize: 0x28 }
  - { offsetInCU: 0xB8DE, offset: 0xB8DE, size: 0x8, addend: 0x0, symName: __ZNSt3__16__treeIiNS_4lessIiEENS_9allocatorIiEEE12__node_allocB8ue170006Ev, symObjAddr: 0x172C, symBinAddr: 0x1000021F4, symSize: 0x28 }
  - { offsetInCU: 0xB904, offset: 0xB904, size: 0x8, addend: 0x0, symName: __ZNSt3__116allocator_traitsINS_9allocatorINS_11__tree_nodeIiPvEEEEE7destroyB8ue170006IivvEEvRS5_PT_, symObjAddr: 0x1754, symBinAddr: 0x10000221C, symSize: 0x14 }
  - { offsetInCU: 0xB93F, offset: 0xB93F, size: 0x8, addend: 0x0, symName: __ZNSt3__122__tree_key_value_typesIiE9__get_ptrB8ue170006ERi, symObjAddr: 0x1768, symBinAddr: 0x100002230, symSize: 0x14 }
  - { offsetInCU: 0xB963, offset: 0xB963, size: 0x8, addend: 0x0, symName: __ZNSt3__116allocator_traitsINS_9allocatorINS_11__tree_nodeIiPvEEEEE10deallocateB8ue170006ERS5_PS4_m, symObjAddr: 0x177C, symBinAddr: 0x100002244, symSize: 0x34 }
  - { offsetInCU: 0xB9A5, offset: 0xB9A5, size: 0x8, addend: 0x0, symName: __ZNSt3__117__compressed_pairINS_15__tree_end_nodeIPNS_16__tree_node_baseIPvEEEENS_9allocatorINS_11__tree_nodeIiS3_EEEEE6secondB8ue170006Ev, symObjAddr: 0x17B0, symBinAddr: 0x100002278, symSize: 0x24 }
  - { offsetInCU: 0xB9CB, offset: 0xB9CB, size: 0x8, addend: 0x0, symName: __ZNSt3__122__compressed_pair_elemINS_9allocatorINS_11__tree_nodeIiPvEEEELi1ELb1EE5__getB8ue170006Ev, symObjAddr: 0x17D4, symBinAddr: 0x10000229C, symSize: 0x14 }
  - { offsetInCU: 0xB9F1, offset: 0xB9F1, size: 0x8, addend: 0x0, symName: __ZNSt3__19allocatorINS_11__tree_nodeIiPvEEE10deallocateB8ue170006EPS3_m, symObjAddr: 0x17E8, symBinAddr: 0x1000022B0, symSize: 0x40 }
  - { offsetInCU: 0xBA33, offset: 0xBA33, size: 0x8, addend: 0x0, symName: __ZNKSt3__16__treeIiNS_4lessIiEENS_9allocatorIiEEE10__end_nodeB8ue170006Ev, symObjAddr: 0x1950, symBinAddr: 0x100002418, symSize: 0x2C }
  - { offsetInCU: 0xBA59, offset: 0xBA59, size: 0x8, addend: 0x0, symName: __ZNKSt3__117__compressed_pairINS_15__tree_end_nodeIPNS_16__tree_node_baseIPvEEEENS_9allocatorINS_11__tree_nodeIiS3_EEEEE5firstB8ue170006Ev, symObjAddr: 0x197C, symBinAddr: 0x100002444, symSize: 0x24 }
  - { offsetInCU: 0xBA7F, offset: 0xBA7F, size: 0x8, addend: 0x0, symName: __ZNKSt3__122__compressed_pair_elemINS_15__tree_end_nodeIPNS_16__tree_node_baseIPvEEEELi0ELb0EE5__getB8ue170006Ev, symObjAddr: 0x19A0, symBinAddr: 0x100002468, symSize: 0x14 }
  - { offsetInCU: 0xBAA5, offset: 0xBAA5, size: 0x8, addend: 0x0, symName: __ZNSt3__16__treeIiNS_4lessIiEENS_9allocatorIiEEE4findIiEENS_15__tree_iteratorIiPNS_11__tree_nodeIiPvEElEERKT_, symObjAddr: 0x19B4, symBinAddr: 0x10000247C, symSize: 0xF8 }
  - { offsetInCU: 0xBAF4, offset: 0xBAF4, size: 0x8, addend: 0x0, symName: __ZNSt3__121__tree_const_iteratorIiPNS_11__tree_nodeIiPvEElEC1B8ue170006ENS_15__tree_iteratorIiS4_lEE, symObjAddr: 0x1AAC, symBinAddr: 0x100002574, symSize: 0x34 }
  - { offsetInCU: 0xBB2D, offset: 0xBB2D, size: 0x8, addend: 0x0, symName: __ZNSt3__16__treeIiNS_4lessIiEENS_9allocatorIiEEE13__lower_boundIiEENS_15__tree_iteratorIiPNS_11__tree_nodeIiPvEElEERKT_SB_PNS_15__tree_end_nodeIPNS_16__tree_node_baseIS9_EEEE, symObjAddr: 0x1AE0, symBinAddr: 0x1000025A8, symSize: 0xA4 }
  - { offsetInCU: 0xBB8B, offset: 0xBB8B, size: 0x8, addend: 0x0, symName: __ZNSt3__16__treeIiNS_4lessIiEENS_9allocatorIiEEE3endB8ue170006Ev, symObjAddr: 0x1BB8, symBinAddr: 0x100002680, symSize: 0x34 }
  - { offsetInCU: 0xBBB1, offset: 0xBBB1, size: 0x8, addend: 0x0, symName: __ZNSt3__16__treeIiNS_4lessIiEENS_9allocatorIiEEE10value_compB8ue170006Ev, symObjAddr: 0x1BEC, symBinAddr: 0x1000026B4, symSize: 0x28 }
  - { offsetInCU: 0xBBD7, offset: 0xBBD7, size: 0x8, addend: 0x0, symName: __ZNKSt3__14lessIiEclB8ue170006ERKiS3_, symObjAddr: 0x1C14, symBinAddr: 0x1000026DC, symSize: 0x34 }
  - { offsetInCU: 0xBC1B, offset: 0xBC1B, size: 0x8, addend: 0x0, symName: __ZNKSt3__115__tree_iteratorIiPNS_11__tree_nodeIiPvEElEdeB8ue170006Ev, symObjAddr: 0x1C48, symBinAddr: 0x100002710, symSize: 0x28 }
  - { offsetInCU: 0xBC41, offset: 0xBC41, size: 0x8, addend: 0x0, symName: __ZNSt3__115__tree_iteratorIiPNS_11__tree_nodeIiPvEElEC1B8ue170006EPNS_15__tree_end_nodeIPNS_16__tree_node_baseIS2_EEEE, symObjAddr: 0x1C70, symBinAddr: 0x100002738, symSize: 0x34 }
  - { offsetInCU: 0xBC7A, offset: 0xBC7A, size: 0x8, addend: 0x0, symName: __ZNSt3__115__tree_iteratorIiPNS_11__tree_nodeIiPvEElEC2B8ue170006EPNS_15__tree_end_nodeIPNS_16__tree_node_baseIS2_EEEE, symObjAddr: 0x1CA4, symBinAddr: 0x10000276C, symSize: 0x20 }
  - { offsetInCU: 0xBCB3, offset: 0xBCB3, size: 0x8, addend: 0x0, symName: __ZNSt3__117__compressed_pairImNS_4lessIiEEE6secondB8ue170006Ev, symObjAddr: 0x1CF4, symBinAddr: 0x1000027BC, symSize: 0x24 }
  - { offsetInCU: 0xBCD9, offset: 0xBCD9, size: 0x8, addend: 0x0, symName: __ZNSt3__122__compressed_pair_elemINS_4lessIiEELi1ELb1EE5__getB8ue170006Ev, symObjAddr: 0x1D18, symBinAddr: 0x1000027E0, symSize: 0x14 }
  - { offsetInCU: 0xBCFF, offset: 0xBCFF, size: 0x8, addend: 0x0, symName: __ZNKSt3__115__tree_iteratorIiPNS_11__tree_nodeIiPvEElE8__get_npB8ue170006Ev, symObjAddr: 0x1D2C, symBinAddr: 0x1000027F4, symSize: 0x18 }
  - { offsetInCU: 0xBD25, offset: 0xBD25, size: 0x8, addend: 0x0, symName: __ZNSt3__121__tree_const_iteratorIiPNS_11__tree_nodeIiPvEElEC2B8ue170006ENS_15__tree_iteratorIiS4_lEE, symObjAddr: 0x1D44, symBinAddr: 0x10000280C, symSize: 0x20 }
  - { offsetInCU: 0xBD5E, offset: 0xBD5E, size: 0x8, addend: 0x0, symName: __ZNSt3__16__treeIiNS_4lessIiEENS_9allocatorIiEEE15__insert_uniqueB8ue170006ERKi, symObjAddr: 0x1D94, symBinAddr: 0x10000285C, symSize: 0x50 }
  - { offsetInCU: 0xBD93, offset: 0xBD93, size: 0x8, addend: 0x0, symName: __ZNSt3__14pairINS_21__tree_const_iteratorIiPNS_11__tree_nodeIiPvEElEEbEC1B8ue170006INS_15__tree_iteratorIiS5_lEEbLS3_0EEEONS0_IT_T0_EE, symObjAddr: 0x1DE4, symBinAddr: 0x1000028AC, symSize: 0x34 }
  - { offsetInCU: 0xBDE4, offset: 0xBDE4, size: 0x8, addend: 0x0, symName: __ZNSt3__16__treeIiNS_4lessIiEENS_9allocatorIiEEE25__emplace_unique_key_argsIiJRKiEEENS_4pairINS_15__tree_iteratorIiPNS_11__tree_nodeIiPvEElEEbEERKT_DpOT0_, symObjAddr: 0x1E18, symBinAddr: 0x1000028E0, symSize: 0xF0 }
  - { offsetInCU: 0xBE90, offset: 0xBE90, size: 0x8, addend: 0x0, symName: __ZNSt3__122__tree_key_value_typesIiE9__get_keyB8ue170006ERKi, symObjAddr: 0x1F08, symBinAddr: 0x1000029D0, symSize: 0x14 }
  - { offsetInCU: 0xBEB4, offset: 0xBEB4, size: 0x8, addend: 0x0, symName: __ZNSt3__16__treeIiNS_4lessIiEENS_9allocatorIiEEE12__find_equalIiEERPNS_16__tree_node_baseIPvEERPNS_15__tree_end_nodeISA_EERKT_, symObjAddr: 0x1F1C, symBinAddr: 0x1000029E4, symSize: 0x184 }
  - { offsetInCU: 0xBF21, offset: 0xBF21, size: 0x8, addend: 0x0, symName: __ZNSt3__16__treeIiNS_4lessIiEENS_9allocatorIiEEE16__construct_nodeIJRKiEEENS_10unique_ptrINS_11__tree_nodeIiPvEENS_22__tree_node_destructorINS3_ISC_EEEEEEDpOT_, symObjAddr: 0x20A0, symBinAddr: 0x100002B68, symSize: 0x108 }
  - { offsetInCU: 0xBF82, offset: 0xBF82, size: 0x8, addend: 0x0, symName: __ZNSt3__16__treeIiNS_4lessIiEENS_9allocatorIiEEE16__insert_node_atEPNS_15__tree_end_nodeIPNS_16__tree_node_baseIPvEEEERSA_SA_, symObjAddr: 0x21A8, symBinAddr: 0x100002C70, symSize: 0xCC }
  - { offsetInCU: 0xBFD7, offset: 0xBFD7, size: 0x8, addend: 0x0, symName: __ZNKSt3__110unique_ptrINS_11__tree_nodeIiPvEENS_22__tree_node_destructorINS_9allocatorIS3_EEEEE3getB8ue170006Ev, symObjAddr: 0x2274, symBinAddr: 0x100002D3C, symSize: 0x28 }
  - { offsetInCU: 0xBFFD, offset: 0xBFFD, size: 0x8, addend: 0x0, symName: __ZNSt3__110unique_ptrINS_11__tree_nodeIiPvEENS_22__tree_node_destructorINS_9allocatorIS3_EEEEE7releaseB8ue170006Ev, symObjAddr: 0x229C, symBinAddr: 0x100002D64, symSize: 0x44 }
  - { offsetInCU: 0xC032, offset: 0xC032, size: 0x8, addend: 0x0, symName: __ZNSt3__110unique_ptrINS_11__tree_nodeIiPvEENS_22__tree_node_destructorINS_9allocatorIS3_EEEEED1B8ue170006Ev, symObjAddr: 0x22E0, symBinAddr: 0x100002DA8, symSize: 0x2C }
  - { offsetInCU: 0xC05C, offset: 0xC05C, size: 0x8, addend: 0x0, symName: __ZNSt3__115__tree_iteratorIiPNS_11__tree_nodeIiPvEElEC1B8ue170006ES4_, symObjAddr: 0x230C, symBinAddr: 0x100002DD4, symSize: 0x34 }
  - { offsetInCU: 0xC09F, offset: 0xC09F, size: 0x8, addend: 0x0, symName: __ZNSt3__14pairINS_15__tree_iteratorIiPNS_11__tree_nodeIiPvEElEEbEC1B8ue170006IS6_RbLS3_0EEEOT_OT0_, symObjAddr: 0x2340, symBinAddr: 0x100002E08, symSize: 0x3C }
  - { offsetInCU: 0xC0FD, offset: 0xC0FD, size: 0x8, addend: 0x0, symName: __ZNKSt3__16__treeIiNS_4lessIiEENS_9allocatorIiEEE10__root_ptrB8ue170006Ev, symObjAddr: 0x237C, symBinAddr: 0x100002E44, symSize: 0x24 }
  - { offsetInCU: 0xC123, offset: 0xC123, size: 0x8, addend: 0x0, symName: __ZNSt3__116allocator_traitsINS_9allocatorINS_11__tree_nodeIiPvEEEEE8allocateB8ue170006ERS5_m, symObjAddr: 0x23A0, symBinAddr: 0x100002E68, symSize: 0x2C }
  - { offsetInCU: 0xC156, offset: 0xC156, size: 0x8, addend: 0x0, symName: __ZNSt3__122__tree_node_destructorINS_9allocatorINS_11__tree_nodeIiPvEEEEEC1B8ue170006ERS5_b, symObjAddr: 0x23CC, symBinAddr: 0x100002E94, symSize: 0x48 }
  - { offsetInCU: 0xC1A3, offset: 0xC1A3, size: 0x8, addend: 0x0, symName: __ZNSt3__110unique_ptrINS_11__tree_nodeIiPvEENS_22__tree_node_destructorINS_9allocatorIS3_EEEEEC1B8ue170006ILb1EvEEPS3_NS_16__dependent_typeINS_27__unique_ptr_deleter_sfinaeIS7_EEXT_EE20__good_rval_ref_typeE, symObjAddr: 0x2414, symBinAddr: 0x100002EDC, symSize: 0x3C }
  - { offsetInCU: 0xC1F4, offset: 0xC1F4, size: 0x8, addend: 0x0, symName: __ZNSt3__116allocator_traitsINS_9allocatorINS_11__tree_nodeIiPvEEEEE9constructB8ue170006IiJRKiEvEEvRS5_PT_DpOT0_, symObjAddr: 0x2450, symBinAddr: 0x100002F18, symSize: 0x34 }
  - { offsetInCU: 0xC24B, offset: 0xC24B, size: 0x8, addend: 0x0, symName: __ZNKSt3__110unique_ptrINS_11__tree_nodeIiPvEENS_22__tree_node_destructorINS_9allocatorIS3_EEEEEptB8ue170006Ev, symObjAddr: 0x2484, symBinAddr: 0x100002F4C, symSize: 0x28 }
  - { offsetInCU: 0xC271, offset: 0xC271, size: 0x8, addend: 0x0, symName: __ZNSt3__110unique_ptrINS_11__tree_nodeIiPvEENS_22__tree_node_destructorINS_9allocatorIS3_EEEEE11get_deleterB8ue170006Ev, symObjAddr: 0x24AC, symBinAddr: 0x100002F74, symSize: 0x24 }
  - { offsetInCU: 0xC297, offset: 0xC297, size: 0x8, addend: 0x0, symName: __ZNSt3__19allocatorINS_11__tree_nodeIiPvEEE8allocateB8ue170006Em, symObjAddr: 0x24D0, symBinAddr: 0x100002F98, symSize: 0x58 }
  - { offsetInCU: 0xC2D5, offset: 0xC2D5, size: 0x8, addend: 0x0, symName: __ZNSt3__116allocator_traitsINS_9allocatorINS_11__tree_nodeIiPvEEEEE8max_sizeB8ue170006IS5_vEEmRKS5_, symObjAddr: 0x2528, symBinAddr: 0x100002FF0, symSize: 0x24 }
  - { offsetInCU: 0xC303, offset: 0xC303, size: 0x8, addend: 0x0, symName: __ZNKSt3__19allocatorINS_11__tree_nodeIiPvEEE8max_sizeB8ue170006Ev, symObjAddr: 0x25E0, symBinAddr: 0x1000030A8, symSize: 0x14 }
  - { offsetInCU: 0xC329, offset: 0xC329, size: 0x8, addend: 0x0, symName: __ZNSt3__122__tree_node_destructorINS_9allocatorINS_11__tree_nodeIiPvEEEEEC2B8ue170006ERS5_b, symObjAddr: 0x2644, symBinAddr: 0x10000310C, symSize: 0x38 }
  - { offsetInCU: 0xC371, offset: 0xC371, size: 0x8, addend: 0x0, symName: __ZNSt3__110unique_ptrINS_11__tree_nodeIiPvEENS_22__tree_node_destructorINS_9allocatorIS3_EEEEEC2B8ue170006ILb1EvEEPS3_NS_16__dependent_typeINS_27__unique_ptr_deleter_sfinaeIS7_EEXT_EE20__good_rval_ref_typeE, symObjAddr: 0x267C, symBinAddr: 0x100003144, symSize: 0x48 }
  - { offsetInCU: 0xC3C2, offset: 0xC3C2, size: 0x8, addend: 0x0, symName: __ZNSt3__117__compressed_pairIPNS_11__tree_nodeIiPvEENS_22__tree_node_destructorINS_9allocatorIS3_EEEEEC1B8ue170006IRS4_S8_EEOT_OT0_, symObjAddr: 0x26C4, symBinAddr: 0x10000318C, symSize: 0x3C }
  - { offsetInCU: 0xC41A, offset: 0xC41A, size: 0x8, addend: 0x0, symName: __ZNSt3__117__compressed_pairIPNS_11__tree_nodeIiPvEENS_22__tree_node_destructorINS_9allocatorIS3_EEEEEC2B8ue170006IRS4_S8_EEOT_OT0_, symObjAddr: 0x2700, symBinAddr: 0x1000031C8, symSize: 0x48 }
  - { offsetInCU: 0xC472, offset: 0xC472, size: 0x8, addend: 0x0, symName: __ZNSt3__122__compressed_pair_elemIPNS_11__tree_nodeIiPvEELi0ELb0EEC2B8ue170006IRS4_vEEOT_, symObjAddr: 0x2748, symBinAddr: 0x100003210, symSize: 0x24 }
  - { offsetInCU: 0xC4B4, offset: 0xC4B4, size: 0x8, addend: 0x0, symName: __ZNSt3__122__compressed_pair_elemINS_22__tree_node_destructorINS_9allocatorINS_11__tree_nodeIiPvEEEEEELi1ELb0EEC2B8ue170006IS7_vEEOT_, symObjAddr: 0x276C, symBinAddr: 0x100003234, symSize: 0x24 }
  - { offsetInCU: 0xC4F6, offset: 0xC4F6, size: 0x8, addend: 0x0, symName: __ZNSt3__19allocatorINS_11__tree_nodeIiPvEEE9constructB8ue170006IiJRKiEEEvPT_DpOT0_, symObjAddr: 0x2790, symBinAddr: 0x100003258, symSize: 0x28 }
  - { offsetInCU: 0xC54C, offset: 0xC54C, size: 0x8, addend: 0x0, symName: __ZNKSt3__117__compressed_pairIPNS_11__tree_nodeIiPvEENS_22__tree_node_destructorINS_9allocatorIS3_EEEEE5firstB8ue170006Ev, symObjAddr: 0x27B8, symBinAddr: 0x100003280, symSize: 0x24 }
  - { offsetInCU: 0xC572, offset: 0xC572, size: 0x8, addend: 0x0, symName: __ZNKSt3__122__compressed_pair_elemIPNS_11__tree_nodeIiPvEELi0ELb0EE5__getB8ue170006Ev, symObjAddr: 0x27DC, symBinAddr: 0x1000032A4, symSize: 0x14 }
  - { offsetInCU: 0xC598, offset: 0xC598, size: 0x8, addend: 0x0, symName: __ZNSt3__117__compressed_pairIPNS_11__tree_nodeIiPvEENS_22__tree_node_destructorINS_9allocatorIS3_EEEEE6secondB8ue170006Ev, symObjAddr: 0x27F0, symBinAddr: 0x1000032B8, symSize: 0x28 }
  - { offsetInCU: 0xC5BE, offset: 0xC5BE, size: 0x8, addend: 0x0, symName: __ZNSt3__122__compressed_pair_elemINS_22__tree_node_destructorINS_9allocatorINS_11__tree_nodeIiPvEEEEEELi1ELb0EE5__getB8ue170006Ev, symObjAddr: 0x2818, symBinAddr: 0x1000032E0, symSize: 0x14 }
  - { offsetInCU: 0xC5E4, offset: 0xC5E4, size: 0x8, addend: 0x0, symName: __ZNSt3__16__treeIiNS_4lessIiEENS_9allocatorIiEEE4sizeB8ue170006Ev, symObjAddr: 0x2B58, symBinAddr: 0x100003620, symSize: 0x28 }
  - { offsetInCU: 0xC60A, offset: 0xC60A, size: 0x8, addend: 0x0, symName: __ZNKSt3__116__tree_node_baseIPvE15__parent_unsafeB8ue170006Ev, symObjAddr: 0x2B80, symBinAddr: 0x100003648, symSize: 0x18 }
  - { offsetInCU: 0xC630, offset: 0xC630, size: 0x8, addend: 0x0, symName: __ZNSt3__116__tree_node_baseIPvE12__set_parentB8ue170006EPS2_, symObjAddr: 0x2D68, symBinAddr: 0x100003830, symSize: 0x20 }
  - { offsetInCU: 0xC665, offset: 0xC665, size: 0x8, addend: 0x0, symName: __ZNSt3__117__compressed_pairImNS_4lessIiEEE5firstB8ue170006Ev, symObjAddr: 0x2D88, symBinAddr: 0x100003850, symSize: 0x24 }
  - { offsetInCU: 0xC68B, offset: 0xC68B, size: 0x8, addend: 0x0, symName: __ZNSt3__122__compressed_pair_elemImLi0ELb0EE5__getB8ue170006Ev, symObjAddr: 0x2DAC, symBinAddr: 0x100003874, symSize: 0x14 }
  - { offsetInCU: 0xC6B1, offset: 0xC6B1, size: 0x8, addend: 0x0, symName: __ZNSt3__117__compressed_pairIPNS_11__tree_nodeIiPvEENS_22__tree_node_destructorINS_9allocatorIS3_EEEEE5firstB8ue170006Ev, symObjAddr: 0x2DC0, symBinAddr: 0x100003888, symSize: 0x24 }
  - { offsetInCU: 0xC6D7, offset: 0xC6D7, size: 0x8, addend: 0x0, symName: __ZNSt3__122__compressed_pair_elemIPNS_11__tree_nodeIiPvEELi0ELb0EE5__getB8ue170006Ev, symObjAddr: 0x2DE4, symBinAddr: 0x1000038AC, symSize: 0x14 }
  - { offsetInCU: 0xC6FD, offset: 0xC6FD, size: 0x8, addend: 0x0, symName: __ZNSt3__110unique_ptrINS_11__tree_nodeIiPvEENS_22__tree_node_destructorINS_9allocatorIS3_EEEEED2B8ue170006Ev, symObjAddr: 0x2DF8, symBinAddr: 0x1000038C0, symSize: 0x30 }
  - { offsetInCU: 0xC727, offset: 0xC727, size: 0x8, addend: 0x0, symName: __ZNSt3__110unique_ptrINS_11__tree_nodeIiPvEENS_22__tree_node_destructorINS_9allocatorIS3_EEEEE5resetB8ue170006EPS3_, symObjAddr: 0x2E28, symBinAddr: 0x1000038F0, symSize: 0x78 }
  - { offsetInCU: 0xC76B, offset: 0xC76B, size: 0x8, addend: 0x0, symName: __ZNSt3__122__tree_node_destructorINS_9allocatorINS_11__tree_nodeIiPvEEEEEclB8ue170006EPS4_, symObjAddr: 0x2EA0, symBinAddr: 0x100003968, symSize: 0x88 }
  - { offsetInCU: 0xC7A0, offset: 0xC7A0, size: 0x8, addend: 0x0, symName: __ZNSt3__115__tree_iteratorIiPNS_11__tree_nodeIiPvEElEC2B8ue170006ES4_, symObjAddr: 0x2F28, symBinAddr: 0x1000039F0, symSize: 0x20 }
  - { offsetInCU: 0xC7D9, offset: 0xC7D9, size: 0x8, addend: 0x0, symName: __ZNSt3__14pairINS_15__tree_iteratorIiPNS_11__tree_nodeIiPvEElEEbEC2B8ue170006IS6_RbLS3_0EEEOT_OT0_, symObjAddr: 0x2F48, symBinAddr: 0x100003A10, symSize: 0x38 }
  - { offsetInCU: 0xC837, offset: 0xC837, size: 0x8, addend: 0x0, symName: __ZNSt3__14pairINS_21__tree_const_iteratorIiPNS_11__tree_nodeIiPvEElEEbEC2B8ue170006INS_15__tree_iteratorIiS5_lEEbLS3_0EEEONS0_IT_T0_EE, symObjAddr: 0x2F80, symBinAddr: 0x100003A48, symSize: 0x50 }
...
